; Function Attrs: mustprogress uwtable
define internal void @_ZN32pxrInternal_v0_24__pxrReserved__12_GLOBAL__N_136Hd_PrefixingSceneIndexPathDataSource13GetTypedValueEf(ptr dead_on_unwind noalias writable sret(%"class.pxrInternal_v0_24__pxrReserved__::SdfPath") align 4 %0, ptr noundef nonnull align 8 dereferenceable(32) %1, float noundef %2) unnamed_addr #0 align 2 personality ptr @__gxx_personality_v0 {
  %4 = alloca %"class.pxrInternal_v0_24__pxrReserved__::SdfPath", align 4
  %5 = getelementptr inbounds nuw i8, ptr %1, i64 16
  %6 = load ptr, ptr %5, align 8
  %.not = icmp eq ptr %6, null
  br i1 %.not, label %7, label %8

7:                                                ; preds = %3
  store i64 0, ptr %0, align 4
  br label %_ZN32pxrInternal_v0_24__pxrReserved__7SdfPathD2Ev.exit

8:                                                ; preds = %3
  %9 = load ptr, ptr %6, align 8
  %10 = getelementptr inbounds i8, ptr %9, i64 32
  %11 = load ptr, ptr %10, align 8
  call void %11(ptr dead_on_unwind nonnull writable sret(%"class.pxrInternal_v0_24__pxrReserved__::SdfPath") align 4 %4, ptr noundef nonnull align 8 dereferenceable(8) %6, float noundef %2)
  %12 = invoke noundef zeroext i1 @_ZNK32pxrInternal_v0_24__pxrReserved__7SdfPath14IsAbsolutePathEv(ptr noundef nonnull align 4 dereferenceable(8) %4)
          to label %13 unwind label %18

13:                                               ; preds = %8
  br i1 %12, label %14, label %.thread

14:                                               ; preds = %13
  %15 = invoke noundef nonnull align 4 dereferenceable(8) ptr @_ZN32pxrInternal_v0_24__pxrReserved__7SdfPath16AbsoluteRootPathEv()
          to label %16 unwind label %18

16:                                               ; preds = %14
  %17 = getelementptr inbounds nuw i8, ptr %1, i64 8
  invoke void @_ZNK32pxrInternal_v0_24__pxrReserved__7SdfPath13ReplacePrefixERKS0_S2_b(ptr dead_on_unwind writable sret(%"class.pxrInternal_v0_24__pxrReserved__::SdfPath") align 4 %0, ptr noundef nonnull align 4 dereferenceable(8) %4, ptr noundef nonnull align 4 dereferenceable(8) %15, ptr noundef nonnull align 4 dereferenceable(8) %17, i1 noundef zeroext true)
          to label %24 unwind label %18

18:                                               ; preds = %16, %14, %8
  %19 = landingpad { ptr, i32 }
          cleanup
  call void @_ZN32pxrInternal_v0_24__pxrReserved__7SdfPathD2Ev(ptr noundef nonnull align 4 dereferenceable(8) %4) #22
  resume { ptr, i32 } %19

.thread:                                          ; preds = %13
  %20 = load i32, ptr %4, align 4
  store i32 %20, ptr %0, align 4
  %21 = getelementptr inbounds nuw i8, ptr %0, i64 4
  %22 = getelementptr inbounds nuw i8, ptr %4, i64 4
  %23 = load i32, ptr %22, align 4
  store i32 %23, ptr %21, align 4
  br label %_ZN32pxrInternal_v0_24__pxrReserved__7SdfPathD2Ev.exit

24:                                               ; preds = %16
  %.pre = load i32, ptr %4, align 4
  %.not.i.i = icmp eq i32 %.pre, 0
  br i1 %.not.i.i, label %_ZN32pxrInternal_v0_24__pxrReserved__7SdfPathD2Ev.exit, label %25

25:                                               ; preds = %24
  %26 = and i32 %.pre, 255
  %27 = lshr i32 %.pre, 8
  %28 = zext nneg i32 %26 to i64
  %29 = getelementptr inbounds [257 x ptr], ptr @_ZN32pxrInternal_v0_24__pxrReserved__8Sdf_PoolINS_15Sdf_PathPrimTagELj24ELj8ELj16384EE13_regionStartsE, i64 0, i64 %28
  %30 = load ptr, ptr %29, align 8
  %31 = mul nuw nsw i32 %27, 24
  %32 = zext nneg i32 %31 to i64
  %33 = getelementptr inbounds i8, ptr %30, i64 %32
  %34 = getelementptr inbounds nuw i8, ptr %33, i64 8
  %35 = atomicrmw sub ptr %34, i32 1 seq_cst, align 4
  %36 = and i32 %35, 2147483647
  %37 = icmp eq i32 %36, 1
  br i1 %37, label %38, label %_ZN32pxrInternal_v0_24__pxrReserved__7SdfPathD2Ev.exit

38:                                               ; preds = %25
  invoke void @_ZNK32pxrInternal_v0_24__pxrReserved__12Sdf_PathNode8_DestroyEv(ptr noundef nonnull align 8 dereferenceable(16) %33)
          to label %_ZN32pxrInternal_v0_24__pxrReserved__7SdfPathD2Ev.exit unwind label %39

39:                                               ; preds = %38
  %40 = landingpad { ptr, i32 }
          catch ptr null
  %41 = extractvalue { ptr, i32 } %40, 0
  call void @__clang_call_terminate(ptr %41) #24
  unreachable

_ZN32pxrInternal_v0_24__pxrReserved__7SdfPathD2Ev.exit: ; preds = %.thread, %38, %25, %24, %7
  ret void
}